; ModuleID = '7/42.c'
source_filename = "7/42.c"
target datalayout = "e-m:e-p270:32:32-p271:32:32-p272:64:64-i64:64-f80:128-n8:16:32:64-S128"
target triple = "x86_64-pc-linux-gnu"

@.str = private unnamed_addr constant [3 x i8] c"%c\00", align 1

; Function Attrs: noinline nounwind uwtable
define dso_local i32 @main() #0 {
  %1 = alloca i32, align 4
  %2 = alloca [100 x i8], align 16
  %3 = alloca [50 x i8], align 16
  %4 = alloca [50 x i8], align 16
  %5 = alloca [100 x i8], align 16
  %6 = alloca i32, align 4
  %7 = alloca i32, align 4
  %8 = alloca i32, align 4
  %9 = alloca i32, align 4
  %10 = alloca i32, align 4
  %11 = alloca i32, align 4
  store i32 0, i32* %1, align 4
  %12 = bitcast [100 x i8]* %2 to i8*
  call void @llvm.memset.p0i8.i64(i8* align 16 %12, i8 0, i64 100, i1 false)
  %13 = bitcast [50 x i8]* %3 to i8*
  call void @llvm.memset.p0i8.i64(i8* align 16 %13, i8 0, i64 50, i1 false)
  %14 = bitcast [50 x i8]* %4 to i8*
  call void @llvm.memset.p0i8.i64(i8* align 16 %14, i8 0, i64 50, i1 false)
  %15 = bitcast [100 x i8]* %5 to i8*
  call void @llvm.memset.p0i8.i64(i8* align 16 %15, i8 0, i64 100, i1 false)
  store i32 0, i32* %8, align 4
  store i32 0, i32* %9, align 4
  store i32 0, i32* %11, align 4
  %16 = getelementptr inbounds [100 x i8], [100 x i8]* %2, i64 0, i64 0
  %17 = call i32 (i8*, ...) bitcast (i32 (...)* @gets to i32 (i8*, ...)*)(i8* %16)
  %18 = getelementptr inbounds [50 x i8], [50 x i8]* %3, i64 0, i64 0
  %19 = call i32 (i8*, ...) bitcast (i32 (...)* @gets to i32 (i8*, ...)*)(i8* %18)
  %20 = getelementptr inbounds [50 x i8], [50 x i8]* %4, i64 0, i64 0
  %21 = call i32 (i8*, ...) bitcast (i32 (...)* @gets to i32 (i8*, ...)*)(i8* %20)
  store i32 0, i32* %6, align 4
  br label %22

22:                                               ; preds = %112, %0
  %23 = load i32, i32* %6, align 4
  %24 = sext i32 %23 to i64
  %25 = getelementptr inbounds [100 x i8], [100 x i8]* %2, i64 0, i64 %24
  %26 = load i8, i8* %25, align 1
  %27 = sext i8 %26 to i32
  %28 = icmp ne i32 %27, 0
  br i1 %28, label %29, label %115

29:                                               ; preds = %22
  %30 = load i32, i32* %6, align 4
  %31 = sext i32 %30 to i64
  %32 = getelementptr inbounds [100 x i8], [100 x i8]* %2, i64 0, i64 %31
  %33 = load i8, i8* %32, align 1
  %34 = sext i8 %33 to i32
  %35 = getelementptr inbounds [50 x i8], [50 x i8]* %3, i64 0, i64 0
  %36 = load i8, i8* %35, align 16
  %37 = sext i8 %36 to i32
  %38 = icmp eq i32 %34, %37
  br i1 %38, label %39, label %97

39:                                               ; preds = %29
  %40 = load i32, i32* %11, align 4
  %41 = icmp eq i32 %40, 0
  br i1 %41, label %42, label %97

42:                                               ; preds = %39
  store i32 0, i32* %8, align 4
  store i32 0, i32* %7, align 4
  br label %43

43:                                               ; preds = %68, %42
  %44 = load i32, i32* %7, align 4
  %45 = sext i32 %44 to i64
  %46 = getelementptr inbounds [50 x i8], [50 x i8]* %3, i64 0, i64 %45
  %47 = load i8, i8* %46, align 1
  %48 = sext i8 %47 to i32
  %49 = icmp ne i32 %48, 0
  br i1 %49, label %50, label %71

50:                                               ; preds = %43
  store i32 0, i32* %9, align 4
  %51 = load i32, i32* %7, align 4
  %52 = sext i32 %51 to i64
  %53 = getelementptr inbounds [50 x i8], [50 x i8]* %3, i64 0, i64 %52
  %54 = load i8, i8* %53, align 1
  %55 = sext i8 %54 to i32
  %56 = load i32, i32* %6, align 4
  %57 = load i32, i32* %7, align 4
  %58 = add nsw i32 %56, %57
  %59 = sext i32 %58 to i64
  %60 = getelementptr inbounds [100 x i8], [100 x i8]* %2, i64 0, i64 %59
  %61 = load i8, i8* %60, align 1
  %62 = sext i8 %61 to i32
  %63 = icmp eq i32 %55, %62
  br i1 %63, label %64, label %67

64:                                               ; preds = %50
  %65 = load i32, i32* %8, align 4
  %66 = add nsw i32 %65, 1
  store i32 %66, i32* %8, align 4
  store i32 1, i32* %9, align 4
  br label %67

67:                                               ; preds = %64, %50
  br label %68

68:                                               ; preds = %67
  %69 = load i32, i32* %7, align 4
  %70 = add nsw i32 %69, 1
  store i32 %70, i32* %7, align 4
  br label %43

71:                                               ; preds = %43
  %72 = load i32, i32* %9, align 4
  %73 = icmp eq i32 %72, 1
  br i1 %73, label %74, label %96

74:                                               ; preds = %71
  store i32 0, i32* %10, align 4
  br label %75

75:                                               ; preds = %89, %74
  %76 = load i32, i32* %10, align 4
  %77 = sext i32 %76 to i64
  %78 = getelementptr inbounds [50 x i8], [50 x i8]* %4, i64 0, i64 %77
  %79 = load i8, i8* %78, align 1
  %80 = sext i8 %79 to i32
  %81 = icmp ne i32 %80, 0
  br i1 %81, label %82, label %92

82:                                               ; preds = %75
  %83 = load i32, i32* %10, align 4
  %84 = sext i32 %83 to i64
  %85 = getelementptr inbounds [50 x i8], [50 x i8]* %4, i64 0, i64 %84
  %86 = load i8, i8* %85, align 1
  %87 = sext i8 %86 to i32
  %88 = call i32 (i8*, ...) @printf(i8* getelementptr inbounds ([3 x i8], [3 x i8]* @.str, i64 0, i64 0), i32 %87)
  br label %89

89:                                               ; preds = %82
  %90 = load i32, i32* %10, align 4
  %91 = add nsw i32 %90, 1
  store i32 %91, i32* %10, align 4
  br label %75

92:                                               ; preds = %75
  %93 = load i32, i32* %6, align 4
  %94 = load i32, i32* %8, align 4
  %95 = add nsw i32 %93, %94
  store i32 %95, i32* %6, align 4
  store i32 1, i32* %11, align 4
  br label %96

96:                                               ; preds = %92, %71
  br label %97

97:                                               ; preds = %96, %39, %29
  %98 = load i32, i32* %6, align 4
  %99 = sext i32 %98 to i64
  %100 = getelementptr inbounds [100 x i8], [100 x i8]* %2, i64 0, i64 %99
  %101 = load i8, i8* %100, align 1
  %102 = sext i8 %101 to i32
  %103 = icmp ne i32 %102, 0
  br i1 %103, label %104, label %111

104:                                              ; preds = %97
  %105 = load i32, i32* %6, align 4
  %106 = sext i32 %105 to i64
  %107 = getelementptr inbounds [100 x i8], [100 x i8]* %2, i64 0, i64 %106
  %108 = load i8, i8* %107, align 1
  %109 = sext i8 %108 to i32
  %110 = call i32 (i8*, ...) @printf(i8* getelementptr inbounds ([3 x i8], [3 x i8]* @.str, i64 0, i64 0), i32 %109)
  br label %111

111:                                              ; preds = %104, %97
  br label %112

112:                                              ; preds = %111
  %113 = load i32, i32* %6, align 4
  %114 = add nsw i32 %113, 1
  store i32 %114, i32* %6, align 4
  br label %22

115:                                              ; preds = %22
  %116 = load i32, i32* %1, align 4
  ret i32 %116
}

; Function Attrs: argmemonly nounwind willreturn
declare void @llvm.memset.p0i8.i64(i8* nocapture writeonly, i8, i64, i1 immarg) #1

declare dso_local i32 @gets(...) #2

declare dso_local i32 @printf(i8*, ...) #2


!llvm.module.flags = !{!0}
!llvm.ident = !{!1}

!0 = !{i32 1, !"wchar_size", i32 4}
!1 = !{!"clang version 10.0.0-4ubuntu1 "}
