; ModuleID = 'source-C-CXX/6/42.c'
source_filename = "source-C-CXX/6/42.c"
target datalayout = "e-m:e-p270:32:32-p271:32:32-p272:64:64-i64:64-f80:128-n8:16:32:64-S128"
target triple = "x86_64-pc-linux-gnu"

; Function Attrs: nounwind sspstrong uwtable
define dso_local i32 @main() local_unnamed_addr #0 {
  %1 = alloca [100 x i8], align 16
  %2 = alloca [50 x i8], align 16
  %3 = alloca [50 x i8], align 16
  %4 = getelementptr inbounds [100 x i8], [100 x i8]* %1, i64 0, i64 0
  call void @llvm.lifetime.start.p0i8(i64 100, i8* nonnull %4) #5
  call void @llvm.memset.p0i8.i64(i8* noundef nonnull align 16 dereferenceable(100) %4, i8 0, i64 100, i1 false)
  %5 = getelementptr inbounds [50 x i8], [50 x i8]* %2, i64 0, i64 0
  call void @llvm.lifetime.start.p0i8(i64 50, i8* nonnull %5) #5
  call void @llvm.memset.p0i8.i64(i8* noundef nonnull align 16 dereferenceable(50) %5, i8 0, i64 50, i1 false)
  %6 = getelementptr inbounds [50 x i8], [50 x i8]* %3, i64 0, i64 0
  call void @llvm.lifetime.start.p0i8(i64 50, i8* nonnull %6) #5
  call void @llvm.memset.p0i8.i64(i8* noundef nonnull align 16 dereferenceable(50) %6, i8 0, i64 50, i1 false)
  %7 = call i32 (i8*, ...) bitcast (i32 (...)* @gets to i32 (i8*, ...)*)(i8* nonnull %4) #5
  %8 = call i32 (i8*, ...) bitcast (i32 (...)* @gets to i32 (i8*, ...)*)(i8* nonnull %5) #5
  %9 = call i32 (i8*, ...) bitcast (i32 (...)* @gets to i32 (i8*, ...)*)(i8* nonnull %6) #5
  %10 = load i8, i8* %4, align 16, !tbaa !5
  %11 = icmp eq i8 %10, 0
  br i1 %11, label %67, label %12

12:                                               ; preds = %0, %61
  %13 = phi i8 [ %65, %61 ], [ %10, %0 ]
  %14 = phi i32 [ %53, %61 ], [ 0, %0 ]
  %15 = phi i32 [ %62, %61 ], [ 0, %0 ]
  %16 = load i8, i8* %5, align 16, !tbaa !5
  %17 = icmp eq i8 %13, %16
  %18 = icmp eq i32 %14, 0
  %19 = select i1 %17, i1 %18, i1 false
  br i1 %19, label %20, label %51

20:                                               ; preds = %12
  %21 = sext i32 %15 to i64
  br label %22

22:                                               ; preds = %20, %22
  %23 = phi i64 [ 0, %20 ], [ %32, %22 ]
  %24 = phi i8 [ %13, %20 ], [ %34, %22 ]
  %25 = phi i32 [ 0, %20 ], [ %31, %22 ]
  %26 = add nsw i64 %23, %21
  %27 = getelementptr inbounds [100 x i8], [100 x i8]* %1, i64 0, i64 %26
  %28 = load i8, i8* %27, align 1, !tbaa !5
  %29 = icmp eq i8 %24, %28
  %30 = zext i1 %29 to i32
  %31 = add nuw nsw i32 %25, %30
  %32 = add nuw nsw i64 %23, 1
  %33 = getelementptr inbounds [50 x i8], [50 x i8]* %2, i64 0, i64 %32
  %34 = load i8, i8* %33, align 1, !tbaa !5
  %35 = icmp eq i8 %34, 0
  br i1 %35, label %36, label %22, !llvm.loop !8

36:                                               ; preds = %22
  br i1 %29, label %37, label %51

37:                                               ; preds = %36
  %38 = load i8, i8* %6, align 16, !tbaa !5
  %39 = icmp eq i8 %38, 0
  br i1 %39, label %49, label %40

40:                                               ; preds = %37, %40
  %41 = phi i64 [ %45, %40 ], [ 0, %37 ]
  %42 = phi i8 [ %47, %40 ], [ %38, %37 ]
  %43 = sext i8 %42 to i32
  %44 = call i32 @putchar(i32 %43)
  %45 = add nuw i64 %41, 1
  %46 = getelementptr inbounds [50 x i8], [50 x i8]* %3, i64 0, i64 %45
  %47 = load i8, i8* %46, align 1, !tbaa !5
  %48 = icmp eq i8 %47, 0
  br i1 %48, label %49, label %40, !llvm.loop !10

49:                                               ; preds = %40, %37
  %50 = add nsw i32 %31, %15
  br label %51

51:                                               ; preds = %36, %49, %12
  %52 = phi i32 [ %50, %49 ], [ %15, %36 ], [ %15, %12 ]
  %53 = phi i32 [ 1, %49 ], [ 0, %36 ], [ %14, %12 ]
  %54 = sext i32 %52 to i64
  %55 = getelementptr inbounds [100 x i8], [100 x i8]* %1, i64 0, i64 %54
  %56 = load i8, i8* %55, align 1, !tbaa !5
  %57 = icmp eq i8 %56, 0
  br i1 %57, label %61, label %58

58:                                               ; preds = %51
  %59 = sext i8 %56 to i32
  %60 = call i32 @putchar(i32 %59)
  br label %61

61:                                               ; preds = %51, %58
  %62 = add nsw i32 %52, 1
  %63 = sext i32 %62 to i64
  %64 = getelementptr inbounds [100 x i8], [100 x i8]* %1, i64 0, i64 %63
  %65 = load i8, i8* %64, align 1, !tbaa !5
  %66 = icmp eq i8 %65, 0
  br i1 %66, label %67, label %12, !llvm.loop !11

67:                                               ; preds = %61, %0
  call void @llvm.lifetime.end.p0i8(i64 50, i8* nonnull %6) #5
  call void @llvm.lifetime.end.p0i8(i64 50, i8* nonnull %5) #5
  call void @llvm.lifetime.end.p0i8(i64 100, i8* nonnull %4) #5
  ret i32 0
}

; Function Attrs: argmemonly mustprogress nofree nosync nounwind willreturn
declare void @llvm.lifetime.start.p0i8(i64 immarg, i8* nocapture) #1

; Function Attrs: argmemonly mustprogress nofree nounwind willreturn writeonly
declare void @llvm.memset.p0i8.i64(i8* nocapture writeonly, i8, i64, i1 immarg) #2

declare i32 @gets(...) local_unnamed_addr #3

; Function Attrs: argmemonly mustprogress nofree nosync nounwind willreturn
declare void @llvm.lifetime.end.p0i8(i64 immarg, i8* nocapture) #1

; Function Attrs: nofree nounwind
declare noundef i32 @putchar(i32 noundef) local_unnamed_addr #4


!llvm.module.flags = !{!0, !1, !2, !3}
!llvm.ident = !{!4}

!0 = !{i32 1, !"wchar_size", i32 4}
!1 = !{i32 7, !"PIC Level", i32 2}
!2 = !{i32 7, !"PIE Level", i32 2}
!3 = !{i32 7, !"uwtable", i32 1}
!4 = !{!"clang version 13.0.0"}
!5 = !{!6, !6, i64 0}
!6 = !{!"omnipotent char", !7, i64 0}
!7 = !{!"Simple C/C++ TBAA"}
!8 = distinct !{!8, !9}
!9 = !{!"llvm.loop.mustprogress"}
!10 = distinct !{!10, !9}
!11 = distinct !{!11, !9}
